; ModuleID = '7/354.c'
source_filename = "7/354.c"
target datalayout = "e-m:e-p270:32:32-p271:32:32-p272:64:64-i64:64-f80:128-n8:16:32:64-S128"
target triple = "x86_64-pc-linux-gnu"

@.str = private unnamed_addr constant [3 x i8] c"%s\00", align 1
@.str.1 = private unnamed_addr constant [3 x i8] c"%c\00", align 1

; Function Attrs: noinline nounwind uwtable
define dso_local i32 @main() #0 {
  %1 = alloca i32, align 4
  %2 = alloca [256 x i8], align 16
  %3 = alloca [256 x i8], align 16
  %4 = alloca [256 x i8], align 16
  %5 = alloca i32, align 4
  %6 = alloca i32, align 4
  %7 = alloca i32, align 4
  %8 = alloca i32, align 4
  %9 = alloca i32, align 4
  store i32 0, i32* %1, align 4
  %10 = getelementptr inbounds [256 x i8], [256 x i8]* %3, i64 0, i64 0
  %11 = call i32 (i8*, ...) @__isoc99_scanf(i8* getelementptr inbounds ([3 x i8], [3 x i8]* @.str, i64 0, i64 0), i8* %10)
  %12 = getelementptr inbounds [256 x i8], [256 x i8]* %2, i64 0, i64 0
  %13 = call i32 (i8*, ...) @__isoc99_scanf(i8* getelementptr inbounds ([3 x i8], [3 x i8]* @.str, i64 0, i64 0), i8* %12)
  %14 = getelementptr inbounds [256 x i8], [256 x i8]* %4, i64 0, i64 0
  %15 = call i32 (i8*, ...) @__isoc99_scanf(i8* getelementptr inbounds ([3 x i8], [3 x i8]* @.str, i64 0, i64 0), i8* %14)
  %16 = getelementptr inbounds [256 x i8], [256 x i8]* %2, i64 0, i64 0
  %17 = call i64 @strlen(i8* %16) #3
  %18 = trunc i64 %17 to i32
  store i32 %18, i32* %7, align 4
  %19 = getelementptr inbounds [256 x i8], [256 x i8]* %3, i64 0, i64 0
  %20 = call i64 @strlen(i8* %19) #3
  %21 = trunc i64 %20 to i32
  store i32 %21, i32* %8, align 4
  store i32 0, i32* %5, align 4
  br label %22

22:                                               ; preds = %58, %0
  %23 = load i32, i32* %5, align 4
  %24 = load i32, i32* %8, align 4
  %25 = load i32, i32* %7, align 4
  %26 = sub nsw i32 %24, %25
  %27 = icmp sle i32 %23, %26
  br i1 %27, label %28, label %61

28:                                               ; preds = %22
  store i32 0, i32* %6, align 4
  br label %29

29:                                               ; preds = %49, %28
  %30 = load i32, i32* %6, align 4
  %31 = load i32, i32* %7, align 4
  %32 = icmp slt i32 %30, %31
  br i1 %32, label %33, label %52

33:                                               ; preds = %29
  %34 = load i32, i32* %5, align 4
  %35 = load i32, i32* %6, align 4
  %36 = add nsw i32 %34, %35
  %37 = sext i32 %36 to i64
  %38 = getelementptr inbounds [256 x i8], [256 x i8]* %3, i64 0, i64 %37
  %39 = load i8, i8* %38, align 1
  %40 = sext i8 %39 to i32
  %41 = load i32, i32* %6, align 4
  %42 = sext i32 %41 to i64
  %43 = getelementptr inbounds [256 x i8], [256 x i8]* %2, i64 0, i64 %42
  %44 = load i8, i8* %43, align 1
  %45 = sext i8 %44 to i32
  %46 = icmp ne i32 %40, %45
  br i1 %46, label %47, label %48

47:                                               ; preds = %33
  br label %52

48:                                               ; preds = %33
  br label %49

49:                                               ; preds = %48
  %50 = load i32, i32* %6, align 4
  %51 = add nsw i32 %50, 1
  store i32 %51, i32* %6, align 4
  br label %29

52:                                               ; preds = %47, %29
  %53 = load i32, i32* %6, align 4
  %54 = load i32, i32* %7, align 4
  %55 = icmp eq i32 %53, %54
  br i1 %55, label %56, label %57

56:                                               ; preds = %52
  br label %61

57:                                               ; preds = %52
  br label %58

58:                                               ; preds = %57
  %59 = load i32, i32* %5, align 4
  %60 = add nsw i32 %59, 1
  store i32 %60, i32* %5, align 4
  br label %22

61:                                               ; preds = %56, %22
  %62 = load i32, i32* %6, align 4
  %63 = load i32, i32* %7, align 4
  %64 = icmp eq i32 %62, %63
  br i1 %64, label %65, label %111

65:                                               ; preds = %61
  store i32 0, i32* %9, align 4
  br label %66

66:                                               ; preds = %77, %65
  %67 = load i32, i32* %9, align 4
  %68 = load i32, i32* %5, align 4
  %69 = icmp slt i32 %67, %68
  br i1 %69, label %70, label %80

70:                                               ; preds = %66
  %71 = load i32, i32* %9, align 4
  %72 = sext i32 %71 to i64
  %73 = getelementptr inbounds [256 x i8], [256 x i8]* %3, i64 0, i64 %72
  %74 = load i8, i8* %73, align 1
  %75 = sext i8 %74 to i32
  %76 = call i32 (i8*, ...) @printf(i8* getelementptr inbounds ([3 x i8], [3 x i8]* @.str.1, i64 0, i64 0), i32 %75)
  br label %77

77:                                               ; preds = %70
  %78 = load i32, i32* %9, align 4
  %79 = add nsw i32 %78, 1
  store i32 %79, i32* %9, align 4
  br label %66

80:                                               ; preds = %66
  %81 = getelementptr inbounds [256 x i8], [256 x i8]* %4, i64 0, i64 0
  %82 = call i32 (i8*, ...) @printf(i8* getelementptr inbounds ([3 x i8], [3 x i8]* @.str, i64 0, i64 0), i8* %81)
  %83 = load i32, i32* %5, align 4
  %84 = load i32, i32* %7, align 4
  %85 = add nsw i32 %83, %84
  %86 = sext i32 %85 to i64
  %87 = getelementptr inbounds [256 x i8], [256 x i8]* %3, i64 0, i64 %86
  %88 = load i8, i8* %87, align 1
  %89 = sext i8 %88 to i32
  %90 = icmp ne i32 %89, 0
  br i1 %90, label %91, label %110

91:                                               ; preds = %80
  %92 = load i32, i32* %5, align 4
  %93 = load i32, i32* %7, align 4
  %94 = add nsw i32 %92, %93
  store i32 %94, i32* %9, align 4
  br label %95

95:                                               ; preds = %106, %91
  %96 = load i32, i32* %9, align 4
  %97 = load i32, i32* %8, align 4
  %98 = icmp slt i32 %96, %97
  br i1 %98, label %99, label %109

99:                                               ; preds = %95
  %100 = load i32, i32* %9, align 4
  %101 = sext i32 %100 to i64
  %102 = getelementptr inbounds [256 x i8], [256 x i8]* %3, i64 0, i64 %101
  %103 = load i8, i8* %102, align 1
  %104 = sext i8 %103 to i32
  %105 = call i32 (i8*, ...) @printf(i8* getelementptr inbounds ([3 x i8], [3 x i8]* @.str.1, i64 0, i64 0), i32 %104)
  br label %106

106:                                              ; preds = %99
  %107 = load i32, i32* %9, align 4
  %108 = add nsw i32 %107, 1
  store i32 %108, i32* %9, align 4
  br label %95

109:                                              ; preds = %95
  br label %110

110:                                              ; preds = %109, %80
  br label %122

111:                                              ; preds = %61
  %112 = load i32, i32* %5, align 4
  %113 = load i32, i32* %8, align 4
  %114 = load i32, i32* %7, align 4
  %115 = sub nsw i32 %113, %114
  %116 = add nsw i32 %115, 1
  %117 = icmp eq i32 %112, %116
  br i1 %117, label %118, label %121

118:                                              ; preds = %111
  %119 = getelementptr inbounds [256 x i8], [256 x i8]* %3, i64 0, i64 0
  %120 = call i32 (i8*, ...) @printf(i8* getelementptr inbounds ([3 x i8], [3 x i8]* @.str, i64 0, i64 0), i8* %119)
  br label %121

121:                                              ; preds = %118, %111
  br label %122

122:                                              ; preds = %121, %110
  ret i32 0
}

declare dso_local i32 @__isoc99_scanf(i8*, ...) #1

; Function Attrs: nounwind readonly
declare dso_local i64 @strlen(i8*) #2

declare dso_local i32 @printf(i8*, ...) #1


!llvm.module.flags = !{!0}
!llvm.ident = !{!1}

!0 = !{i32 1, !"wchar_size", i32 4}
!1 = !{!"clang version 10.0.0-4ubuntu1 "}
